; Function Attrs: mustprogress nofree norecurse nosync nounwind willreturn memory(read, inaccessiblemem: none) uwtable
define noundef i32 @_ZNK11OpenImageIO6v3_1_011ColorConfig17getNumColorSpacesEv(ptr noundef nonnull readonly align 8 captures(none) dereferenceable(8) %0) local_unnamed_addr #15 align 2 {
  %2 = load ptr, ptr %0, align 8, !tbaa !140
  %3 = getelementptr inbounds nuw i8, ptr %2, i64 32
  %4 = getelementptr inbounds nuw i8, ptr %2, i64 40
  %5 = load ptr, ptr %4, align 8, !tbaa !55
  %6 = load ptr, ptr %3, align 8, !tbaa !182
  %7 = ptrtoint ptr %5 to i64
  %8 = ptrtoint ptr %6 to i64
  %9 = sub i64 %7, %8
  %10 = sdiv exact i64 %9, 96
  %11 = trunc i64 %10 to i32
  ret i32 %11
}